target datalayout = "e-m:e-p270:32:32-p271:32:32-p272:64:64-i64:64-i128:128-f80:128-n8:16:32:64-S128"
target triple = "x86_64-pc-linux-gnu"

@hf_woww_amount_of_masks = internal global i32 0, align 4
@hf_woww_update_mask = internal global i32 0, align 4
@.str.14 = private unnamed_addr constant [12 x i8] c"Update Mask\00", align 1
@hf_woww_update_mask_index = internal global i32 0, align 4
@hf_woww_update_mask_value = internal global i32 0, align 4
@ett_message = internal global i32 0, align 4
@.str.6420 = private unnamed_addr constant [19 x i8] c"Update Mask Values\00", align 1
@.str.6421 = private unnamed_addr constant [20 x i8] c"Update Mask Indices\00", align 1
@.str.6422 = private unnamed_addr constant [17 x i8] c"Update Mask Pair\00", align 1

; Function Attrs: null_pointer_is_valid sspstrong uwtable
define internal void @add_update_mask(ptr noundef %0, ptr noundef %1) #0 {
  %3 = alloca ptr, align 8
  %4 = alloca ptr, align 8
  %5 = alloca i32, align 4
  %6 = alloca ptr, align 8
  %7 = alloca i32, align 4
  %8 = alloca i32, align 4
  %9 = alloca i32, align 4
  %10 = alloca i32, align 4
  %11 = alloca i32, align 4
  %12 = alloca i32, align 4
  %13 = alloca ptr, align 8
  %14 = alloca ptr, align 8
  %15 = alloca ptr, align 8
  %16 = alloca i32, align 4
  %17 = alloca i32, align 4
  %18 = alloca i32, align 4
  %19 = alloca ptr, align 8
  store ptr %0, ptr %3, align 8
  store ptr %1, ptr %4, align 8
  call void @llvm.lifetime.start.p0(i64 4, ptr %5) #8
  store i32 0, ptr %5, align 4
  %20 = load ptr, ptr %3, align 8
  %21 = load i32, ptr @hf_woww_amount_of_masks, align 4
  %22 = call ptr @ptvcursor_add_ret_uint(ptr noundef %20, i32 noundef %21, i32 noundef 1, i32 noundef 0, ptr noundef %5)
  %23 = load ptr, ptr %3, align 8
  %24 = load i32, ptr @ett_message, align 4
  %25 = call ptr (ptr, i32, i32, ptr, ...) @ptvcursor_add_text_with_subtree(ptr noundef %23, i32 noundef -1, i32 noundef %24, ptr noundef @.str.14)
  call void @llvm.lifetime.start.p0(i64 8, ptr %6) #8
  %26 = call ptr @wmem_packet_scope()
  %27 = load i32, ptr %5, align 4
  %28 = mul i32 %27, 4
  %29 = zext i32 %28 to i64
  %30 = call noalias ptr @wmem_alloc0(ptr noundef %26, i64 noundef %29) #9
  store ptr %30, ptr %6, align 8
  call void @llvm.lifetime.start.p0(i64 4, ptr %7) #8
  store i32 0, ptr %7, align 4
  br label %31

31:                                               ; preds = %44, %2
  %32 = load i32, ptr %7, align 4
  %33 = load i32, ptr %5, align 4
  %34 = icmp ult i32 %32, %33
  br i1 %34, label %36, label %35

35:                                               ; preds = %31
  call void @llvm.lifetime.end.p0(i64 4, ptr %7) #8
  br label %47

36:                                               ; preds = %31
  %37 = load ptr, ptr %3, align 8
  %38 = load i32, ptr @hf_woww_update_mask, align 4
  %39 = load ptr, ptr %6, align 8
  %40 = load i32, ptr %7, align 4
  %41 = zext i32 %40 to i64
  %42 = getelementptr i32, ptr %39, i64 %41
  %43 = call ptr @ptvcursor_add_ret_uint(ptr noundef %37, i32 noundef %38, i32 noundef 4, i32 noundef -2147483648, ptr noundef %42)
  br label %44

44:                                               ; preds = %36
  %45 = load i32, ptr %7, align 4
  %46 = add i32 %45, 1
  store i32 %46, ptr %7, align 4
  br label %31, !llvm.loop !108

47:                                               ; preds = %35
  %48 = load ptr, ptr %3, align 8
  call void @ptvcursor_pop_subtree(ptr noundef %48)
  call void @llvm.lifetime.start.p0(i64 4, ptr %8) #8
  store i32 0, ptr %8, align 4
  call void @llvm.lifetime.start.p0(i64 4, ptr %9) #8
  store i32 0, ptr %9, align 4
  br label %49

49:                                               ; preds = %77, %47
  %50 = load i32, ptr %9, align 4
  %51 = load i32, ptr %5, align 4
  %52 = icmp ult i32 %50, %51
  br i1 %52, label %54, label %53

53:                                               ; preds = %49
  store i32 5, ptr %10, align 4
  call void @llvm.lifetime.end.p0(i64 4, ptr %9) #8
  br label %80

54:                                               ; preds = %49
  call void @llvm.lifetime.start.p0(i64 4, ptr %11) #8
  store i32 0, ptr %11, align 4
  br label %55

55:                                               ; preds = %73, %54
  %56 = load i32, ptr %11, align 4
  %57 = icmp ult i32 %56, 32
  br i1 %57, label %59, label %58

58:                                               ; preds = %55
  store i32 8, ptr %10, align 4
  call void @llvm.lifetime.end.p0(i64 4, ptr %11) #8
  br label %76

59:                                               ; preds = %55
  %60 = load ptr, ptr %6, align 8
  %61 = load i32, ptr %9, align 4
  %62 = zext i32 %61 to i64
  %63 = getelementptr i32, ptr %60, i64 %62
  %64 = load i32, ptr %63, align 4
  %65 = load i32, ptr %11, align 4
  %66 = shl i32 1, %65
  %67 = and i32 %64, %66
  %68 = icmp ne i32 %67, 0
  br i1 %68, label %69, label %72

69:                                               ; preds = %59
  %70 = load i32, ptr %8, align 4
  %71 = add i32 %70, 1
  store i32 %71, ptr %8, align 4
  br label %72

72:                                               ; preds = %69, %59
  br label %73

73:                                               ; preds = %72
  %74 = load i32, ptr %11, align 4
  %75 = add i32 %74, 1
  store i32 %75, ptr %11, align 4
  br label %55, !llvm.loop !109

76:                                               ; preds = %58
  br label %77

77:                                               ; preds = %76
  %78 = load i32, ptr %9, align 4
  %79 = add i32 %78, 1
  store i32 %79, ptr %9, align 4
  br label %49, !llvm.loop !110

80:                                               ; preds = %53
  call void @llvm.lifetime.start.p0(i64 4, ptr %12) #8
  %81 = load i32, ptr %8, align 4
  %82 = mul i32 %81, 4
  store i32 %82, ptr %12, align 4
  call void @llvm.lifetime.start.p0(i64 8, ptr %13) #8
  %83 = call ptr @wmem_packet_scope()
  %84 = load i32, ptr %12, align 4
  %85 = zext i32 %84 to i64
  %86 = call noalias ptr @wmem_alloc0(ptr noundef %83, i64 noundef %85) #9
  store ptr %86, ptr %13, align 8
  %87 = load ptr, ptr %3, align 8
  %88 = load i32, ptr @ett_message, align 4
  %89 = call ptr (ptr, i32, i32, ptr, ...) @ptvcursor_add_text_with_subtree(ptr noundef %87, i32 noundef -1, i32 noundef %88, ptr noundef @.str.6420)
  call void @llvm.lifetime.start.p0(i64 8, ptr %14) #8
  %90 = load ptr, ptr %3, align 8
  %91 = call ptr @ptvcursor_tvbuff(ptr noundef %90)
  store ptr %91, ptr %14, align 8
  call void @llvm.lifetime.start.p0(i64 8, ptr %15) #8
  %92 = load ptr, ptr %14, align 8
  %93 = load ptr, ptr %13, align 8
  %94 = load i32, ptr %12, align 4
  %95 = load i32, ptr %12, align 4
  %96 = call ptr @tvb_new_child_real_data(ptr noundef %92, ptr noundef %93, i32 noundef %94, i32 noundef %95)
  store ptr %96, ptr %15, align 8
  %97 = load ptr, ptr %4, align 8
  %98 = load ptr, ptr %15, align 8
  call void @add_new_data_source(ptr noundef %97, ptr noundef %98, ptr noundef @.str.6421)
  call void @llvm.lifetime.start.p0(i64 4, ptr %16) #8
  store i32 0, ptr %16, align 4
  call void @llvm.lifetime.start.p0(i64 4, ptr %17) #8
  store i32 0, ptr %17, align 4
  br label %99

99:                                               ; preds = %150, %80
  %100 = load i32, ptr %17, align 4
  %101 = load i32, ptr %5, align 4
  %102 = icmp ult i32 %100, %101
  br i1 %102, label %104, label %103

103:                                              ; preds = %99
  store i32 11, ptr %10, align 4
  call void @llvm.lifetime.end.p0(i64 4, ptr %17) #8
  br label %153

104:                                              ; preds = %99
  call void @llvm.lifetime.start.p0(i64 4, ptr %18) #8
  store i32 0, ptr %18, align 4
  br label %105

105:                                              ; preds = %146, %104
  %106 = load i32, ptr %18, align 4
  %107 = icmp ult i32 %106, 32
  br i1 %107, label %109, label %108

108:                                              ; preds = %105
  store i32 14, ptr %10, align 4
  call void @llvm.lifetime.end.p0(i64 4, ptr %18) #8
  br label %149

109:                                              ; preds = %105
  %110 = load ptr, ptr %6, align 8
  %111 = load i32, ptr %17, align 4
  %112 = zext i32 %111 to i64
  %113 = getelementptr i32, ptr %110, i64 %112
  %114 = load i32, ptr %113, align 4
  %115 = load i32, ptr %18, align 4
  %116 = shl i32 1, %115
  %117 = and i32 %114, %116
  %118 = icmp ne i32 %117, 0
  br i1 %118, label %119, label %145

119:                                              ; preds = %109
  %120 = load ptr, ptr %3, align 8
  %121 = load i32, ptr @ett_message, align 4
  %122 = call ptr (ptr, i32, i32, ptr, ...) @ptvcursor_add_text_with_subtree(ptr noundef %120, i32 noundef -1, i32 noundef %121, ptr noundef @.str.6422)
  %123 = load i32, ptr %17, align 4
  %124 = mul i32 32, %123
  %125 = load i32, ptr %18, align 4
  %126 = add i32 %124, %125
  %127 = load ptr, ptr %13, align 8
  %128 = load i32, ptr %16, align 4
  %129 = zext i32 %128 to i64
  %130 = getelementptr i32, ptr %127, i64 %129
  store i32 %126, ptr %130, align 4
  call void @llvm.lifetime.start.p0(i64 8, ptr %19) #8
  %131 = load ptr, ptr %3, align 8
  %132 = call ptr @ptvcursor_tree(ptr noundef %131)
  store ptr %132, ptr %19, align 8
  %133 = load ptr, ptr %19, align 8
  %134 = load i32, ptr @hf_woww_update_mask_index, align 4
  %135 = load ptr, ptr %15, align 8
  %136 = load i32, ptr %16, align 4
  %137 = mul i32 4, %136
  %138 = call ptr @proto_tree_add_item(ptr noundef %133, i32 noundef %134, ptr noundef %135, i32 noundef %137, i32 noundef 4, i32 noundef -2147483648)
  %139 = load i32, ptr %16, align 4
  %140 = add i32 %139, 1
  store i32 %140, ptr %16, align 4
  %141 = load ptr, ptr %3, align 8
  %142 = load i32, ptr @hf_woww_update_mask_value, align 4
  %143 = call ptr @ptvcursor_add(ptr noundef %141, i32 noundef %142, i32 noundef 4, i32 noundef -2147483648)
  %144 = load ptr, ptr %3, align 8
  call void @ptvcursor_pop_subtree(ptr noundef %144)
  call void @llvm.lifetime.end.p0(i64 8, ptr %19) #8
  br label %145

145:                                              ; preds = %119, %109
  br label %146

146:                                              ; preds = %145
  %147 = load i32, ptr %18, align 4
  %148 = add i32 %147, 1
  store i32 %148, ptr %18, align 4
  br label %105, !llvm.loop !111

149:                                              ; preds = %108
  br label %150

150:                                              ; preds = %149
  %151 = load i32, ptr %17, align 4
  %152 = add i32 %151, 1
  store i32 %152, ptr %17, align 4
  br label %99, !llvm.loop !112

153:                                              ; preds = %103
  %154 = load ptr, ptr %3, align 8
  call void @ptvcursor_pop_subtree(ptr noundef %154)
  call void @llvm.lifetime.end.p0(i64 4, ptr %16) #8
  call void @llvm.lifetime.end.p0(i64 8, ptr %15) #8
  call void @llvm.lifetime.end.p0(i64 8, ptr %14) #8
  call void @llvm.lifetime.end.p0(i64 8, ptr %13) #8
  call void @llvm.lifetime.end.p0(i64 4, ptr %12) #8
  call void @llvm.lifetime.end.p0(i64 4, ptr %8) #8
  call void @llvm.lifetime.end.p0(i64 8, ptr %6) #8
  call void @llvm.lifetime.end.p0(i64 4, ptr %5) #8
  ret void
}