; Function Attrs: null_pointer_is_valid sspstrong uwtable
define internal fastcc void @add_update_mask(ptr noundef %0, ptr noundef %1) unnamed_addr #0 {
  %3 = alloca i32, align 4
  call void @llvm.lifetime.start.p0(i64 4, ptr nonnull %3) #6
  store i32 0, ptr %3, align 4
  %4 = load i32, ptr @hf_woww_amount_of_masks, align 4
  %5 = call ptr @ptvcursor_add_ret_uint(ptr noundef %0, i32 noundef %4, i32 noundef 1, i32 noundef 0, ptr noundef nonnull %3)
  %6 = load i32, ptr @ett_message, align 4
  %7 = call ptr (ptr, i32, i32, ptr, ...) @ptvcursor_add_text_with_subtree(ptr noundef %0, i32 noundef -1, i32 noundef %6, ptr noundef nonnull @.str.14)
  %8 = call ptr @wmem_packet_scope()
  %9 = load i32, ptr %3, align 4
  %10 = shl i32 %9, 2
  %11 = zext i32 %10 to i64
  %12 = call noalias ptr @wmem_alloc0(ptr noundef %8, i64 noundef %11) #5
  %13 = load i32, ptr %3, align 4
  %.not66 = icmp eq i32 %13, 0
  br i1 %.not66, label %._crit_edge, label %.lr.ph

._crit_edge:                                      ; preds = %.lr.ph, %2
  call void @ptvcursor_pop_subtree(ptr noundef %0)
  %14 = load i32, ptr %3, align 4
  %.not67 = icmp eq i32 %14, 0
  br i1 %.not67, label %._crit_edge60, label %.preheader54.preheader

.preheader54.preheader:                           ; preds = %._crit_edge
  %wide.trip.count = zext i32 %14 to i64
  br label %.preheader54

.lr.ph:                                           ; preds = %2, %.lr.ph
  %indvars.iv = phi i64 [ %indvars.iv.next, %.lr.ph ], [ 0, %2 ]
  %15 = load i32, ptr @hf_woww_update_mask, align 4
  %16 = getelementptr i32, ptr %12, i64 %indvars.iv
  %17 = call ptr @ptvcursor_add_ret_uint(ptr noundef %0, i32 noundef %15, i32 noundef 4, i32 noundef -2147483648, ptr noundef %16)
  %indvars.iv.next = add nuw nsw i64 %indvars.iv, 1
  %18 = load i32, ptr %3, align 4
  %19 = zext i32 %18 to i64
  %20 = icmp samesign ult i64 %indvars.iv.next, %19
  br i1 %20, label %.lr.ph, label %._crit_edge, !llvm.loop !113

.preheader54:                                     ; preds = %.preheader54.preheader, %32
  %indvars.iv70 = phi i64 [ 0, %.preheader54.preheader ], [ %indvars.iv.next71, %32 ]
  %.04859 = phi i32 [ 0, %.preheader54.preheader ], [ %spec.select, %32 ]
  %21 = getelementptr i32, ptr %12, i64 %indvars.iv70
  %22 = load i32, ptr %21, align 4
  br label %33

._crit_edge60.loopexit:                           ; preds = %32
  %23 = shl i32 %spec.select, 2
  br label %._crit_edge60

._crit_edge60:                                    ; preds = %._crit_edge60.loopexit, %._crit_edge
  %.048.lcssa = phi i32 [ 0, %._crit_edge ], [ %23, %._crit_edge60.loopexit ]
  %24 = call ptr @wmem_packet_scope()
  %25 = zext i32 %.048.lcssa to i64
  %26 = call noalias ptr @wmem_alloc0(ptr noundef %24, i64 noundef %25) #5
  %27 = load i32, ptr @ett_message, align 4
  %28 = call ptr (ptr, i32, i32, ptr, ...) @ptvcursor_add_text_with_subtree(ptr noundef %0, i32 noundef -1, i32 noundef %27, ptr noundef nonnull @.str.6420)
  %29 = call ptr @ptvcursor_tvbuff(ptr noundef %0)
  %30 = call ptr @tvb_new_child_real_data(ptr noundef %29, ptr noundef %26, i32 noundef %.048.lcssa, i32 noundef %.048.lcssa)
  call void @add_new_data_source(ptr noundef %1, ptr noundef %30, ptr noundef nonnull @.str.6421)
  %31 = load i32, ptr %3, align 4
  %.not68 = icmp eq i32 %31, 0
  br i1 %.not68, label %._crit_edge65, label %.preheader

32:                                               ; preds = %33
  %indvars.iv.next71 = add nuw nsw i64 %indvars.iv70, 1
  %exitcond73.not = icmp eq i64 %indvars.iv.next71, %wide.trip.count
  br i1 %exitcond73.not, label %._crit_edge60.loopexit, label %.preheader54, !llvm.loop !114

33:                                               ; preds = %.preheader54, %33
  %.14957 = phi i32 [ %.04859, %.preheader54 ], [ %spec.select, %33 ]
  %.05256 = phi i32 [ 0, %.preheader54 ], [ %36, %33 ]
  %34 = lshr i32 %22, %.05256
  %35 = and i32 %34, 1
  %spec.select = add i32 %35, %.14957
  %36 = add nuw nsw i32 %.05256, 1
  %exitcond.not = icmp eq i32 %36, 32
  br i1 %exitcond.not, label %32, label %33, !llvm.loop !115

.preheader:                                       ; preds = %._crit_edge60, %40
  %indvars.iv75 = phi i64 [ %indvars.iv.next76, %40 ], [ 0, %._crit_edge60 ]
  %.04763 = phi i32 [ %.2, %40 ], [ 0, %._crit_edge60 ]
  %37 = getelementptr i32, ptr %12, i64 %indvars.iv75
  %38 = trunc nuw i64 %indvars.iv75 to i32
  %39 = shl i32 %38, 5
  br label %44

._crit_edge65:                                    ; preds = %40, %._crit_edge60
  call void @ptvcursor_pop_subtree(ptr noundef %0)
  call void @llvm.lifetime.end.p0(i64 4, ptr nonnull %3) #6
  ret void

40:                                               ; preds = %61
  %indvars.iv.next76 = add nuw nsw i64 %indvars.iv75, 1
  %41 = load i32, ptr %3, align 4
  %42 = zext i32 %41 to i64
  %43 = icmp samesign ult i64 %indvars.iv.next76, %42
  br i1 %43, label %.preheader, label %._crit_edge65, !llvm.loop !116

44:                                               ; preds = %.preheader, %61
  %.04562 = phi i32 [ 0, %.preheader ], [ %62, %61 ]
  %.161 = phi i32 [ %.04763, %.preheader ], [ %.2, %61 ]
  %45 = load i32, ptr %37, align 4
  %46 = shl nuw i32 1, %.04562
  %47 = and i32 %45, %46
  %.not = icmp eq i32 %47, 0
  br i1 %.not, label %61, label %48

48:                                               ; preds = %44
  %49 = load i32, ptr @ett_message, align 4
  %50 = call ptr (ptr, i32, i32, ptr, ...) @ptvcursor_add_text_with_subtree(ptr noundef %0, i32 noundef -1, i32 noundef %49, ptr noundef nonnull @.str.6422)
  %51 = add nuw nsw i32 %.04562, %39
  %52 = zext i32 %.161 to i64
  %53 = getelementptr i32, ptr %26, i64 %52
  store i32 %51, ptr %53, align 4
  %54 = call ptr @ptvcursor_tree(ptr noundef %0)
  %55 = load i32, ptr @hf_woww_update_mask_index, align 4
  %56 = shl i32 %.161, 2
  %57 = call ptr @proto_tree_add_item(ptr noundef %54, i32 noundef %55, ptr noundef %30, i32 noundef %56, i32 noundef 4, i32 noundef -2147483648)
  %58 = add i32 %.161, 1
  %59 = load i32, ptr @hf_woww_update_mask_value, align 4
  %60 = call ptr @ptvcursor_add(ptr noundef %0, i32 noundef %59, i32 noundef 4, i32 noundef -2147483648)
  call void @ptvcursor_pop_subtree(ptr noundef %0)
  br label %61

61:                                               ; preds = %44, %48
  %.2 = phi i32 [ %58, %48 ], [ %.161, %44 ]
  %62 = add nuw nsw i32 %.04562, 1
  %exitcond74.not = icmp eq i32 %62, 32
  br i1 %exitcond74.not, label %40, label %44, !llvm.loop !117
}